target datalayout = "e-m:e-p270:32:32-p271:32:32-p272:64:64-i64:64-i128:128-f80:128-n8:16:32:64-S128"
target triple = "x86_64-pc-linux-gnu"

%struct.ExprEvalStep = type { i64, ptr, ptr, %union.anon }
%union.anon = type { %struct.anon.23 }
%struct.anon.23 = type { ptr, ptr, i32, i32, ptr, ptr }
%struct.FunctionCallInfoBaseData = type { ptr, ptr, ptr, i32, i8, i16, [0 x %struct.NullableDatum] }
%struct.NullableDatum = type { i64, i8 }
%struct.anon.15 = type { ptr, ptr, ptr, ptr }
%struct.FmgrInfo = type { ptr, i32, i16, i8, i8, i8, ptr, ptr, ptr }
%struct.Node = type { i32 }
%struct.ErrorSaveContext = type { i32, i8, i8, ptr }

; Function Attrs: inlinehint nounwind uwtable
define internal ptr @DatumGetPointer(i64 noundef %0) #2 {
  %2 = alloca i64, align 8
  store i64 %0, ptr %2, align 8
  %3 = load i64, ptr %2, align 8
  %4 = inttoptr i64 %3 to ptr
  ret ptr %4
}

; Function Attrs: inlinehint nounwind uwtable
define internal i64 @PointerGetDatum(ptr noundef %0) #2 {
  %2 = alloca ptr, align 8
  store ptr %0, ptr %2, align 8
  %3 = load ptr, ptr %2, align 8
  %4 = ptrtoint ptr %3 to i64
  ret i64 %4
}

; Function Attrs: inlinehint nounwind uwtable
define internal ptr @DatumGetCString(i64 noundef %0) #2 {
  %2 = alloca i64, align 8
  store i64 %0, ptr %2, align 8
  %3 = load i64, ptr %2, align 8
  %4 = call ptr @DatumGetPointer(i64 noundef %3)
  ret ptr %4
}

; Function Attrs: nounwind uwtable
define dso_local void @ExecEvalCoerceViaIOSafe(ptr noundef %0, ptr noundef %1) #0 {
  %3 = alloca ptr, align 8
  %4 = alloca ptr, align 8
  %5 = alloca ptr, align 8
  %6 = alloca ptr, align 8
  %7 = alloca ptr, align 8
  %8 = alloca i32, align 4
  store ptr %0, ptr %3, align 8
  store ptr %1, ptr %4, align 8
  call void @llvm.lifetime.start.p0(i64 8, ptr %5) #11
  %9 = load ptr, ptr %4, align 8
  %10 = getelementptr inbounds nuw %struct.ExprEvalStep, ptr %9, i32 0, i32 2
  %11 = load ptr, ptr %10, align 8
  %12 = load i8, ptr %11, align 1, !range !7, !noundef !8
  %13 = trunc i8 %12 to i1
  br i1 %13, label %14, label %15

14:                                               ; preds = %2
  store ptr null, ptr %5, align 8
  br label %42

15:                                               ; preds = %2
  call void @llvm.lifetime.start.p0(i64 8, ptr %6) #11
  %16 = load ptr, ptr %4, align 8
  %17 = getelementptr inbounds nuw %struct.ExprEvalStep, ptr %16, i32 0, i32 3
  %18 = getelementptr inbounds nuw %struct.anon.15, ptr %17, i32 0, i32 1
  %19 = load ptr, ptr %18, align 8
  store ptr %19, ptr %6, align 8
  %20 = load ptr, ptr %4, align 8
  %21 = getelementptr inbounds nuw %struct.ExprEvalStep, ptr %20, i32 0, i32 1
  %22 = load ptr, ptr %21, align 8
  %23 = load i64, ptr %22, align 8
  %24 = load ptr, ptr %6, align 8
  %25 = getelementptr inbounds nuw %struct.FunctionCallInfoBaseData, ptr %24, i32 0, i32 6
  %26 = getelementptr inbounds [0 x %struct.NullableDatum], ptr %25, i64 0, i64 0
  %27 = getelementptr inbounds nuw %struct.NullableDatum, ptr %26, i32 0, i32 0
  store i64 %23, ptr %27, align 8
  %28 = load ptr, ptr %6, align 8
  %29 = getelementptr inbounds nuw %struct.FunctionCallInfoBaseData, ptr %28, i32 0, i32 6
  %30 = getelementptr inbounds [0 x %struct.NullableDatum], ptr %29, i64 0, i64 0
  %31 = getelementptr inbounds nuw %struct.NullableDatum, ptr %30, i32 0, i32 1
  store i8 0, ptr %31, align 8
  %32 = load ptr, ptr %6, align 8
  %33 = getelementptr inbounds nuw %struct.FunctionCallInfoBaseData, ptr %32, i32 0, i32 4
  store i8 0, ptr %33, align 4
  %34 = load ptr, ptr %6, align 8
  %35 = getelementptr inbounds nuw %struct.FunctionCallInfoBaseData, ptr %34, i32 0, i32 0
  %36 = load ptr, ptr %35, align 8
  %37 = getelementptr inbounds nuw %struct.FmgrInfo, ptr %36, i32 0, i32 0
  %38 = load ptr, ptr %37, align 8
  %39 = load ptr, ptr %6, align 8
  %40 = call i64 %38(ptr noundef %39)
  %41 = call ptr @DatumGetCString(i64 noundef %40)
  store ptr %41, ptr %5, align 8
  call void @llvm.lifetime.end.p0(i64 8, ptr %6) #11
  br label %42

42:                                               ; preds = %15, %14
  %43 = load ptr, ptr %4, align 8
  %44 = getelementptr inbounds nuw %struct.ExprEvalStep, ptr %43, i32 0, i32 3
  %45 = getelementptr inbounds nuw %struct.anon.15, ptr %44, i32 0, i32 2
  %46 = load ptr, ptr %45, align 8
  %47 = getelementptr inbounds nuw %struct.FmgrInfo, ptr %46, i32 0, i32 3
  %48 = load i8, ptr %47, align 2, !range !7, !noundef !8
  %49 = trunc i8 %48 to i1
  br i1 %49, label %50, label %53

50:                                               ; preds = %42
  %51 = load ptr, ptr %5, align 8
  %52 = icmp ne ptr %51, null
  br i1 %52, label %53, label %120

53:                                               ; preds = %50, %42
  call void @llvm.lifetime.start.p0(i64 8, ptr %7) #11
  %54 = load ptr, ptr %4, align 8
  %55 = getelementptr inbounds nuw %struct.ExprEvalStep, ptr %54, i32 0, i32 3
  %56 = getelementptr inbounds nuw %struct.anon.15, ptr %55, i32 0, i32 3
  %57 = load ptr, ptr %56, align 8
  store ptr %57, ptr %7, align 8
  %58 = load ptr, ptr %5, align 8
  %59 = call i64 @PointerGetDatum(ptr noundef %58)
  %60 = load ptr, ptr %7, align 8
  %61 = getelementptr inbounds nuw %struct.FunctionCallInfoBaseData, ptr %60, i32 0, i32 6
  %62 = getelementptr inbounds [0 x %struct.NullableDatum], ptr %61, i64 0, i64 0
  %63 = getelementptr inbounds nuw %struct.NullableDatum, ptr %62, i32 0, i32 0
  store i64 %59, ptr %63, align 8
  %64 = load ptr, ptr %4, align 8
  %65 = getelementptr inbounds nuw %struct.ExprEvalStep, ptr %64, i32 0, i32 2
  %66 = load ptr, ptr %65, align 8
  %67 = load i8, ptr %66, align 1, !range !7, !noundef !8
  %68 = trunc i8 %67 to i1
  %69 = load ptr, ptr %7, align 8
  %70 = getelementptr inbounds nuw %struct.FunctionCallInfoBaseData, ptr %69, i32 0, i32 6
  %71 = getelementptr inbounds [0 x %struct.NullableDatum], ptr %70, i64 0, i64 0
  %72 = getelementptr inbounds nuw %struct.NullableDatum, ptr %71, i32 0, i32 1
  %73 = zext i1 %68 to i8
  store i8 %73, ptr %72, align 8
  %74 = load ptr, ptr %7, align 8
  %75 = getelementptr inbounds nuw %struct.FunctionCallInfoBaseData, ptr %74, i32 0, i32 4
  store i8 0, ptr %75, align 4
  %76 = load ptr, ptr %7, align 8
  %77 = getelementptr inbounds nuw %struct.FunctionCallInfoBaseData, ptr %76, i32 0, i32 0
  %78 = load ptr, ptr %77, align 8
  %79 = getelementptr inbounds nuw %struct.FmgrInfo, ptr %78, i32 0, i32 0
  %80 = load ptr, ptr %79, align 8
  %81 = load ptr, ptr %7, align 8
  %82 = call i64 %80(ptr noundef %81)
  %83 = load ptr, ptr %4, align 8
  %84 = getelementptr inbounds nuw %struct.ExprEvalStep, ptr %83, i32 0, i32 1
  %85 = load ptr, ptr %84, align 8
  store i64 %82, ptr %85, align 8
  %86 = load ptr, ptr %7, align 8
  %87 = getelementptr inbounds nuw %struct.FunctionCallInfoBaseData, ptr %86, i32 0, i32 1
  %88 = load ptr, ptr %87, align 8
  %89 = icmp ne ptr %88, null
  br i1 %89, label %90, label %111

90:                                               ; preds = %53
  %91 = load ptr, ptr %7, align 8
  %92 = getelementptr inbounds nuw %struct.FunctionCallInfoBaseData, ptr %91, i32 0, i32 1
  %93 = load ptr, ptr %92, align 8
  %94 = getelementptr inbounds nuw %struct.Node, ptr %93, i32 0, i32 0
  %95 = load i32, ptr %94, align 4
  %96 = icmp eq i32 %95, 446
  br i1 %96, label %97, label %111

97:                                               ; preds = %90
  %98 = load ptr, ptr %7, align 8
  %99 = getelementptr inbounds nuw %struct.FunctionCallInfoBaseData, ptr %98, i32 0, i32 1
  %100 = load ptr, ptr %99, align 8
  %101 = getelementptr inbounds nuw %struct.ErrorSaveContext, ptr %100, i32 0, i32 1
  %102 = load i8, ptr %101, align 4, !range !7, !noundef !8
  %103 = trunc i8 %102 to i1
  br i1 %103, label %104, label %111

104:                                              ; preds = %97
  %105 = load ptr, ptr %4, align 8
  %106 = getelementptr inbounds nuw %struct.ExprEvalStep, ptr %105, i32 0, i32 2
  %107 = load ptr, ptr %106, align 8
  store i8 1, ptr %107, align 1
  %108 = load ptr, ptr %4, align 8
  %109 = getelementptr inbounds nuw %struct.ExprEvalStep, ptr %108, i32 0, i32 1
  %110 = load ptr, ptr %109, align 8
  store i64 0, ptr %110, align 8
  store i32 1, ptr %8, align 4
  br label %117

111:                                              ; preds = %97, %90, %53
  %112 = load ptr, ptr %5, align 8
  %113 = icmp eq ptr %112, null
  br i1 %113, label %114, label %115

114:                                              ; preds = %111
  br label %116

115:                                              ; preds = %111
  br label %116

116:                                              ; preds = %115, %114
  store i32 0, ptr %8, align 4
  br label %117

117:                                              ; preds = %116, %104
  call void @llvm.lifetime.end.p0(i64 8, ptr %7) #11
  %118 = load i32, ptr %8, align 4
  switch i32 %118, label %121 [
    i32 0, label %119
  ]

119:                                              ; preds = %117
  br label %120

120:                                              ; preds = %119, %50
  store i32 0, ptr %8, align 4
  br label %121

121:                                              ; preds = %120, %117
  call void @llvm.lifetime.end.p0(i64 8, ptr %5) #11
  %122 = load i32, ptr %8, align 4
  switch i32 %122, label %124 [
    i32 0, label %123
    i32 1, label %123
  ]

123:                                              ; preds = %121, %121
  ret void

124:                                              ; preds = %121
  unreachable
}