; Function Attrs: nounwind uwtable
define dso_local void @ExecEvalCoerceViaIOSafe(ptr noundef readnone captures(none) %0, ptr noundef readonly captures(none) %1) local_unnamed_addr #0 {
  %3 = getelementptr inbounds nuw i8, ptr %1, i64 16
  %4 = load ptr, ptr %3, align 8
  %5 = load i8, ptr %4, align 1, !range !8, !noundef !9
  %6 = trunc nuw i8 %5 to i1
  br i1 %6, label %20, label %7

7:                                                ; preds = %2
  %8 = getelementptr inbounds nuw i8, ptr %1, i64 32
  %9 = load ptr, ptr %8, align 8
  %10 = getelementptr inbounds nuw i8, ptr %1, i64 8
  %11 = load ptr, ptr %10, align 8
  %12 = load i64, ptr %11, align 8
  %13 = getelementptr inbounds nuw i8, ptr %9, i64 32
  store i64 %12, ptr %13, align 8
  %14 = getelementptr inbounds nuw i8, ptr %9, i64 40
  store i8 0, ptr %14, align 8
  %15 = getelementptr inbounds nuw i8, ptr %9, i64 28
  store i8 0, ptr %15, align 4
  %16 = load ptr, ptr %9, align 8
  %17 = load ptr, ptr %16, align 8
  %18 = tail call i64 %17(ptr noundef nonnull %9) #18
  %19 = inttoptr i64 %18 to ptr
  br label %20

20:                                               ; preds = %2, %7
  %.025 = phi ptr [ %19, %7 ], [ null, %2 ]
  %21 = getelementptr inbounds nuw i8, ptr %1, i64 40
  %22 = load ptr, ptr %21, align 8
  %23 = getelementptr inbounds nuw i8, ptr %22, i64 14
  %24 = load i8, ptr %23, align 2, !range !8, !noundef !9
  %25 = trunc nuw i8 %24 to i1
  %26 = icmp eq ptr %.025, null
  %or.cond.not = select i1 %25, i1 %26, i1 false
  br i1 %or.cond.not, label %52, label %27

27:                                               ; preds = %20
  %28 = getelementptr inbounds nuw i8, ptr %1, i64 48
  %29 = load ptr, ptr %28, align 8
  %30 = ptrtoint ptr %.025 to i64
  %31 = getelementptr inbounds nuw i8, ptr %29, i64 32
  store i64 %30, ptr %31, align 8
  %32 = load ptr, ptr %3, align 8
  %33 = load i8, ptr %32, align 1, !range !8, !noundef !9
  %34 = getelementptr inbounds nuw i8, ptr %29, i64 40
  store i8 %33, ptr %34, align 8
  %35 = getelementptr inbounds nuw i8, ptr %29, i64 28
  store i8 0, ptr %35, align 4
  %36 = load ptr, ptr %29, align 8
  %37 = load ptr, ptr %36, align 8
  %38 = tail call i64 %37(ptr noundef nonnull %29) #18
  %39 = getelementptr inbounds nuw i8, ptr %1, i64 8
  %40 = load ptr, ptr %39, align 8
  store i64 %38, ptr %40, align 8
  %41 = getelementptr inbounds nuw i8, ptr %29, i64 8
  %42 = load ptr, ptr %41, align 8
  %.not = icmp eq ptr %42, null
  br i1 %.not, label %52, label %43

43:                                               ; preds = %27
  %44 = load i32, ptr %42, align 4
  %45 = icmp eq i32 %44, 446
  br i1 %45, label %46, label %52

46:                                               ; preds = %43
  %47 = getelementptr inbounds nuw i8, ptr %42, i64 4
  %48 = load i8, ptr %47, align 4, !range !8, !noundef !9
  %49 = trunc nuw i8 %48 to i1
  br i1 %49, label %.critedge, label %52

.critedge:                                        ; preds = %46
  %50 = load ptr, ptr %3, align 8
  store i8 1, ptr %50, align 1
  %51 = load ptr, ptr %39, align 8
  store i64 0, ptr %51, align 8
  br label %52

52:                                               ; preds = %20, %46, %43, %27, %.critedge
  ret void
}